	.file	"integrate.c"
	.option nopic
	.attribute arch, "rv32i2p0"
	.attribute unaligned_access, 0
	.attribute stack_align, 16
	.text
.Ltext0:
	.cfi_sections	.debug_frame
	.file 0 "/home/ubuntu/Desktop/lab-wlos_baseline_1/testbench/integrate" "integrate.c"
	.section	.mprj,"ax",@progbits
	.align	2
	.globl	uart_write
	.type	uart_write, @function
uart_write:
.LFB321:
	.file 1 "integrate.c"
	.loc 1 14 1
	.cfi_startproc
.LVL0:
	.loc 1 15 5
	.loc 1 15 14 is_stmt 0
	li	a4,805306368
.L2:
	.loc 1 15 11 is_stmt 1 discriminator 1
	.loc 1 15 14 is_stmt 0 discriminator 1
	lw	a5,8(a4)
	.loc 1 15 11 discriminator 1
	andi	a5,a5,8
	bne	a5,zero,.L2
	.loc 1 16 5 is_stmt 1
	.loc 1 16 39 is_stmt 0
	sw	a0,4(a4)
	.loc 1 17 1
	ret
	.cfi_endproc
.LFE321:
	.size	uart_write, .-uart_write
	.align	2
	.globl	uart_write_char
	.type	uart_write_char, @function
uart_write_char:
.LFB322:
	.loc 1 20 1 is_stmt 1
	.cfi_startproc
.LVL1:
	.loc 1 21 2
	.loc 1 21 5 is_stmt 0
	li	a5,10
	beq	a0,a5,.L11
.L6:
	.loc 1 25 14 discriminator 1
	li	a4,805306368
.L8:
	.loc 1 25 11 is_stmt 1 discriminator 1
	.loc 1 25 14 is_stmt 0 discriminator 1
	lw	a5,8(a4)
	.loc 1 25 11 discriminator 1
	andi	a5,a5,8
	bne	a5,zero,.L8
	.loc 1 26 5 is_stmt 1
	.loc 1 26 39 is_stmt 0
	sw	a0,4(a4)
	.loc 1 27 1
	ret
.L11:
.LBB4:
.LBB5:
	.loc 1 25 14
	li	a4,805306368
.L7:
	.loc 1 25 11 is_stmt 1
	.loc 1 25 14 is_stmt 0
	lw	a5,8(a4)
	.loc 1 25 11
	andi	a5,a5,8
	bne	a5,zero,.L7
	.loc 1 26 5 is_stmt 1
	.loc 1 26 39 is_stmt 0
	li	a5,13
	sw	a5,4(a4)
	.loc 1 27 1
	j	.L6
.LBE5:
.LBE4:
	.cfi_endproc
.LFE322:
	.size	uart_write_char, .-uart_write_char
	.align	2
	.globl	uart_write_string
	.type	uart_write_string, @function
uart_write_string:
.LFB323:
	.loc 1 30 1 is_stmt 1
	.cfi_startproc
.LVL2:
	.loc 1 31 5
	.loc 1 31 12
	lbu	a3,0(a0)
	beq	a3,zero,.L12
.LBB10:
.LBB11:
	.loc 1 21 5 is_stmt 0
	li	a2,10
.LBB12:
.LBB13:
	.loc 1 25 14
	li	a4,805306368
	.loc 1 26 39
	li	a1,13
.L17:
.LBE13:
.LBE12:
.LBE11:
.LBE10:
	.loc 1 32 9 is_stmt 1
	.loc 1 32 28 is_stmt 0
	addi	a0,a0,1
.LVL3:
.LBB18:
.LBB16:
	.loc 1 21 2 is_stmt 1
	.loc 1 21 5 is_stmt 0
	beq	a3,a2,.L15
.L16:
	.loc 1 25 11 is_stmt 1
	.loc 1 25 14 is_stmt 0
	lw	a5,8(a4)
	.loc 1 25 11
	andi	a5,a5,8
	bne	a5,zero,.L16
	.loc 1 26 5 is_stmt 1
	.loc 1 26 39 is_stmt 0
	sw	a3,4(a4)
.LVL4:
.LBE16:
.LBE18:
	.loc 1 31 12 is_stmt 1
	lbu	a3,0(a0)
	bne	a3,zero,.L17
.L12:
	.loc 1 33 1 is_stmt 0
	ret
.LVL5:
.L15:
.LBB19:
.LBB17:
.LBB15:
.LBB14:
	.loc 1 25 11 is_stmt 1
	.loc 1 25 14 is_stmt 0
	lw	a5,8(a4)
	.loc 1 25 11
	andi	a5,a5,8
	bne	a5,zero,.L15
	.loc 1 26 5 is_stmt 1
	.loc 1 26 39 is_stmt 0
	sw	a1,4(a4)
	.loc 1 27 1
	j	.L16
.LBE14:
.LBE15:
.LBE17:
.LBE19:
	.cfi_endproc
.LFE323:
	.size	uart_write_string, .-uart_write_string
	.align	2
	.globl	uart_read_char
	.type	uart_read_char, @function
uart_read_char:
.LFB324:
	.loc 1 37 1 is_stmt 1
	.cfi_startproc
	.loc 1 38 2
	.loc 1 39 5
	.loc 1 39 12 is_stmt 0
	li	a4,805306368
	lw	a5,8(a4)
	.loc 1 37 1
	li	a0,0
	.loc 1 39 44
	srli	a5,a5,5
	.loc 1 39 7
	bne	a5,zero,.L25
	.loc 1 39 67 discriminator 1
	lw	a5,8(a4)
	.loc 1 39 99 discriminator 1
	srli	a5,a5,4
	.loc 1 39 60 discriminator 1
	bne	a5,zero,.L25
.LVL6:
.LBB20:
	.loc 1 40 26 is_stmt 1 discriminator 1
	.loc 1 41 13 discriminator 1
 #APP
# 41 "integrate.c" 1
	nop
# 0 "" 2
	.loc 1 40 32 discriminator 1
.LVL7:
	.loc 1 40 26 discriminator 1
 #NO_APP
.LBE20:
	.loc 1 43 9 discriminator 1
	.loc 1 43 16 is_stmt 0 discriminator 1
	lw	a0,0(a4)
	.loc 1 43 13 discriminator 1
	andi	a0,a0,0xff
.LVL8:
.L25:
	.loc 1 46 5 is_stmt 1
	.loc 1 47 1 is_stmt 0
	ret
	.cfi_endproc
.LFE324:
	.size	uart_read_char, .-uart_read_char
	.align	2
	.globl	uart_read
	.type	uart_read, @function
uart_read:
.LFB325:
	.loc 1 50 1 is_stmt 1
	.cfi_startproc
	.loc 1 51 5
	.loc 1 52 5
	.loc 1 52 12 is_stmt 0
	li	a4,805306368
	lw	a5,8(a4)
	.loc 1 52 44
	srli	a5,a5,5
	.loc 1 52 7
	bne	a5,zero,.L27
	.loc 1 52 67 discriminator 1
	lw	a5,8(a4)
	.loc 1 52 99 discriminator 1
	srli	a5,a5,4
	.loc 1 52 60 discriminator 1
	bne	a5,zero,.L27
.LVL9:
.LBB21:
	.loc 1 53 26 is_stmt 1 discriminator 1
	.loc 1 54 13 discriminator 1
 #APP
# 54 "integrate.c" 1
	nop
# 0 "" 2
	.loc 1 53 32 discriminator 1
.LVL10:
	.loc 1 53 26 discriminator 1
 #NO_APP
.LBE21:
	.loc 1 56 9 discriminator 1
	.loc 1 56 16 is_stmt 0 discriminator 1
	lw	a0,0(a4)
.LVL11:
.L27:
	.loc 1 59 5 is_stmt 1
	.loc 1 60 1 is_stmt 0
	ret
	.cfi_endproc
.LFE325:
	.size	uart_read, .-uart_read
	.section	.mprjram,"ax",@progbits
	.align	2
	.globl	partition
	.type	partition, @function
partition:
.LFB326:
	.loc 1 63 75 is_stmt 1
	.cfi_startproc
.LVL12:
	.loc 1 64 2
	.loc 1 64 6 is_stmt 0
	lui	a6,%hi(.LANCHOR0)
	addi	a6,a6,%lo(.LANCHOR0)
	slli	t3,a1,2
	add	t1,a6,t3
	lw	a7,0(t1)
.LVL13:
	.loc 1 65 2 is_stmt 1
	.loc 1 65 6 is_stmt 0
	addi	a2,a0,-1
.LVL14:
	.loc 1 66 2 is_stmt 1
	.loc 1 67 2
	.loc 1 67 15
	ble	a1,a0,.L29
	slli	a0,a0,2
.LVL15:
	add	a5,a6,a0
.LVL16:
.L31:
	.loc 1 68 3
	.loc 1 68 7 is_stmt 0
	lw	a3,0(a5)
	.loc 1 68 5
	bge	a3,a7,.L30
	.loc 1 69 6
	addi	a2,a2,1
.LVL17:
	.loc 1 70 9
	slli	a4,a2,2
	add	a4,a6,a4
	lw	a1,0(a4)
	.loc 1 69 4 is_stmt 1
.LVL18:
	.loc 1 70 4
	.loc 1 71 4
	.loc 1 71 9 is_stmt 0
	sw	a3,0(a4)
.LVL19:
	.loc 1 72 4 is_stmt 1
	.loc 1 72 9 is_stmt 0
	sw	a1,0(a5)
.LVL20:
.L30:
	.loc 1 67 20 is_stmt 1 discriminator 2
	.loc 1 67 15 discriminator 2
	addi	a5,a5,4
	bne	t1,a5,.L31
	.loc 1 75 6 is_stmt 0
	add	a5,a6,t3
	lw	a7,0(a5)
.LVL21:
	.loc 1 75 16
	addi	a0,a2,1
.L29:
	.loc 1 75 2 is_stmt 1
	.loc 1 75 14 is_stmt 0
	slli	a5,a0,2
	add	a5,a6,a5
	lw	a4,0(a5)
	.loc 1 75 4
	ble	a4,a7,.L28
	.loc 1 76 3 is_stmt 1
.LVL22:
	.loc 1 77 3
	.loc 1 77 10 is_stmt 0
	sw	a7,0(a5)
	.loc 1 78 3 is_stmt 1
	.loc 1 78 9 is_stmt 0
	add	a6,a6,t3
	sw	a4,0(a6)
	.loc 1 80 2 is_stmt 1
.LVL23:
.L28:
	.loc 1 81 1 is_stmt 0
	ret
	.cfi_endproc
.LFE326:
	.size	partition, .-partition
	.align	2
	.globl	sort
	.type	sort, @function
sort:
.LFB327:
	.loc 1 83 72 is_stmt 1
	.cfi_startproc
.LVL24:
	.loc 1 84 2
	.loc 1 84 4 is_stmt 0
	ble	a1,a0,.L64
	.loc 1 83 72
	addi	sp,sp,-96
	.cfi_def_cfa_offset 96
	sw	s5,68(sp)
	sw	s7,60(sp)
	sw	ra,92(sp)
	sw	s0,88(sp)
	sw	s1,84(sp)
	sw	s2,80(sp)
	sw	s3,76(sp)
	sw	s4,72(sp)
	sw	s6,64(sp)
	sw	s8,56(sp)
	sw	s9,52(sp)
	sw	s10,48(sp)
	sw	s11,44(sp)
	.cfi_offset 21, -28
	.cfi_offset 23, -36
	.cfi_offset 1, -4
	.cfi_offset 8, -8
	.cfi_offset 9, -12
	.cfi_offset 18, -16
	.cfi_offset 19, -20
	.cfi_offset 20, -24
	.cfi_offset 22, -32
	.cfi_offset 24, -40
	.cfi_offset 25, -44
	.cfi_offset 26, -48
	.cfi_offset 27, -52
	mv	s7,a0
	mv	s5,a1
.LVL25:
.L53:
.LBB48:
	.loc 1 85 3 is_stmt 1
	.loc 1 85 11 is_stmt 0
	mv	a1,s5
	mv	a0,s7
	call	partition
.LVL26:
	sw	a0,8(sp)
.LVL27:
	.loc 1 86 3 is_stmt 1
	addi	s9,a0,-1
.LVL28:
.LBB49:
.LBB50:
	.loc 1 84 2
	.loc 1 84 4 is_stmt 0
	ble	s9,s7,.L37
.LVL29:
.L52:
.LBB51:
	.loc 1 85 3 is_stmt 1
	.loc 1 85 11 is_stmt 0
	mv	a1,s9
	mv	a0,s7
	call	partition
.LVL30:
	sw	a0,12(sp)
.LVL31:
	.loc 1 86 3 is_stmt 1
	addi	s10,a0,-1
.LVL32:
.LBB52:
.LBB53:
	.loc 1 84 2
	.loc 1 84 4 is_stmt 0
	ble	s10,s7,.L38
.LVL33:
.L51:
.LBB54:
	.loc 1 85 3 is_stmt 1
	.loc 1 85 11 is_stmt 0
	mv	a1,s10
	mv	a0,s7
	call	partition
.LVL34:
	sw	a0,16(sp)
.LVL35:
	.loc 1 86 3 is_stmt 1
	addi	s11,a0,-1
.LVL36:
.LBB55:
.LBB56:
	.loc 1 84 2
	.loc 1 84 4 is_stmt 0
	ble	s11,s7,.L39
.LVL37:
.L50:
.LBB57:
	.loc 1 85 3 is_stmt 1
	.loc 1 85 11 is_stmt 0
	mv	a1,s11
	mv	a0,s7
	call	partition
.LVL38:
	sw	a0,20(sp)
.LVL39:
	.loc 1 86 3 is_stmt 1
	addi	s2,a0,-1
.LVL40:
.LBB58:
.LBB59:
	.loc 1 84 2
	.loc 1 84 4 is_stmt 0
	ble	s2,s7,.L40
.LVL41:
.L49:
.LBB60:
	.loc 1 85 3 is_stmt 1
	.loc 1 85 11 is_stmt 0
	mv	a1,s2
	mv	a0,s7
	call	partition
.LVL42:
	.loc 1 86 3
	addi	s1,a0,-1
	.loc 1 85 11
	mv	s0,a0
.LVL43:
	.loc 1 86 3 is_stmt 1
.LBB61:
.LBB62:
	.loc 1 84 2
	.loc 1 84 4 is_stmt 0
	ble	s1,s7,.L41
.LVL44:
.L48:
.LBB63:
	.loc 1 85 3 is_stmt 1
	.loc 1 85 11 is_stmt 0
	mv	a1,s1
	mv	a0,s7
	call	partition
.LVL45:
	.loc 1 86 3
	addi	s6,a0,-1
	.loc 1 85 11
	mv	s3,a0
.LVL46:
	.loc 1 86 3 is_stmt 1
.LBB64:
.LBB65:
	.loc 1 84 2
	.loc 1 84 4 is_stmt 0
	ble	s6,s7,.L42
.LVL47:
.L47:
.LBB66:
	.loc 1 85 3 is_stmt 1
	.loc 1 85 11 is_stmt 0
	mv	a1,s6
	mv	a0,s7
	call	partition
.LVL48:
	.loc 1 86 3
	addi	s4,a0,-1
	.loc 1 85 11
	mv	s8,a0
.LVL49:
	.loc 1 86 3 is_stmt 1
.LBB67:
.LBB68:
	.loc 1 84 2
	.loc 1 84 4 is_stmt 0
	ble	s4,s7,.L43
.LVL50:
.L46:
.LBB69:
	.loc 1 85 3 is_stmt 1
	.loc 1 85 11 is_stmt 0
	mv	a1,s4
	mv	a0,s7
	call	partition
.LVL51:
	.loc 1 86 3
	addi	a3,a0,-1
	.loc 1 85 11
	mv	a4,a0
.LVL52:
	.loc 1 86 3 is_stmt 1
.LBB70:
.LBB71:
	.loc 1 84 2
	.loc 1 84 4 is_stmt 0
	ble	a3,s7,.L44
.LVL53:
.L45:
.LBB72:
	.loc 1 85 3 is_stmt 1
	.loc 1 85 11 is_stmt 0
	mv	a1,a3
	mv	a0,s7
	sw	a4,28(sp)
	sw	a3,24(sp)
	call	partition
.LVL54:
	mv	a2,a0
.LVL55:
	.loc 1 86 3 is_stmt 1
	addi	a1,a2,-1
	mv	a0,s7
.LVL56:
	.loc 1 87 3 is_stmt 0
	addi	s7,a2,1
	.loc 1 86 3
	call	sort
.LVL57:
	.loc 1 87 3 is_stmt 1
.LBE72:
	.loc 1 84 2
	.loc 1 84 4 is_stmt 0
	lw	a3,24(sp)
	lw	a4,28(sp)
	bgt	a3,s7,.L45
.LVL58:
.L44:
.LBE71:
.LBE70:
	.loc 1 87 3 is_stmt 1
	addi	s7,a4,1
.LBE69:
	.loc 1 84 2
	.loc 1 84 4 is_stmt 0
	bgt	s4,s7,.L46
.LVL59:
.L43:
.LBE68:
.LBE67:
	.loc 1 87 3 is_stmt 1
	addi	s7,s8,1
.LBE66:
	.loc 1 84 2
	.loc 1 84 4 is_stmt 0
	bgt	s6,s7,.L47
.LVL60:
.L42:
.LBE65:
.LBE64:
	.loc 1 87 3 is_stmt 1
	addi	s7,s3,1
.LBE63:
	.loc 1 84 2
	.loc 1 84 4 is_stmt 0
	bgt	s1,s7,.L48
.LVL61:
.L41:
.LBE62:
.LBE61:
	.loc 1 87 3 is_stmt 1
	addi	s7,s0,1
.LBE60:
	.loc 1 84 2
	.loc 1 84 4 is_stmt 0
	bgt	s2,s7,.L49
.LVL62:
.L40:
.LBE59:
.LBE58:
	.loc 1 87 3 is_stmt 1
	lw	a5,20(sp)
	addi	s7,a5,1
.LBE57:
	.loc 1 84 2
	.loc 1 84 4 is_stmt 0
	bgt	s11,s7,.L50
.LVL63:
.L39:
.LBE56:
.LBE55:
	.loc 1 87 3 is_stmt 1
	lw	a5,16(sp)
	addi	s7,a5,1
.LBE54:
	.loc 1 84 2
	.loc 1 84 4 is_stmt 0
	bgt	s10,s7,.L51
.LVL64:
.L38:
.LBE53:
.LBE52:
	.loc 1 87 3 is_stmt 1
	lw	a5,12(sp)
	addi	s7,a5,1
.LBE51:
	.loc 1 84 2
	.loc 1 84 4 is_stmt 0
	bgt	s9,s7,.L52
.LVL65:
.L37:
.LBE50:
.LBE49:
	.loc 1 87 3 is_stmt 1
	lw	a5,8(sp)
	addi	s7,a5,1
.LBE48:
	.loc 1 84 2
	.loc 1 84 4 is_stmt 0
	blt	s7,s5,.L53
	.loc 1 89 1
	lw	ra,92(sp)
	.cfi_restore 1
	lw	s0,88(sp)
	.cfi_restore 8
	lw	s1,84(sp)
	.cfi_restore 9
	lw	s2,80(sp)
	.cfi_restore 18
	lw	s3,76(sp)
	.cfi_restore 19
	lw	s4,72(sp)
	.cfi_restore 20
	lw	s5,68(sp)
	.cfi_restore 21
.LVL66:
	lw	s6,64(sp)
	.cfi_restore 22
	lw	s7,60(sp)
	.cfi_restore 23
	lw	s8,56(sp)
	.cfi_restore 24
	lw	s9,52(sp)
	.cfi_restore 25
	lw	s10,48(sp)
	.cfi_restore 26
	lw	s11,44(sp)
	.cfi_restore 27
	addi	sp,sp,96
	.cfi_def_cfa_offset 0
.LVL67:
	jr	ra
.LVL68:
.L64:
	ret
	.cfi_endproc
.LFE327:
	.size	sort, .-sort
	.align	2
	.globl	qsort
	.type	qsort, @function
qsort:
.LFB328:
	.loc 1 91 58 is_stmt 1
	.cfi_startproc
	.loc 1 92 2
.LVL69:
.LBB76:
.LBB77:
	.loc 1 84 2
.LBE77:
.LBE76:
	.loc 1 91 58 is_stmt 0
	addi	sp,sp,-16
	.cfi_def_cfa_offset 16
	sw	s0,8(sp)
	sw	s1,4(sp)
	sw	ra,12(sp)
	.cfi_offset 8, -8
	.cfi_offset 9, -12
	.cfi_offset 1, -4
	.loc 1 91 58
	li	s0,0
.LBB80:
.LBB79:
	.loc 1 84 4
	li	s1,8
.L68:
.LBB78:
	.loc 1 85 3 is_stmt 1
	.loc 1 85 11 is_stmt 0
	li	a1,9
	mv	a0,s0
	call	partition
.LVL70:
	mv	a5,a0
.LVL71:
	.loc 1 86 3 is_stmt 1
	addi	a1,a5,-1
	mv	a0,s0
.LVL72:
	.loc 1 87 3 is_stmt 0
	addi	s0,a5,1
	.loc 1 86 3
	call	sort
.LVL73:
	.loc 1 87 3 is_stmt 1
.LBE78:
	.loc 1 84 2
	.loc 1 84 4 is_stmt 0
	ble	s0,s1,.L68
.LVL74:
.LBE79:
.LBE80:
	.loc 1 93 2 is_stmt 1
	.loc 1 94 1 is_stmt 0
	lw	ra,12(sp)
	.cfi_restore 1
	lw	s0,8(sp)
	.cfi_restore 8
	.loc 1 93 9
	lui	a0,%hi(.LANCHOR0)
	.loc 1 94 1
	lw	s1,4(sp)
	.cfi_restore 9
	addi	a0,a0,%lo(.LANCHOR0)
	addi	sp,sp,16
	.cfi_def_cfa_offset 0
	jr	ra
	.cfi_endproc
.LFE328:
	.size	qsort, .-qsort
	.globl	__mulsi3
	.align	2
	.globl	matmul
	.type	matmul, @function
matmul:
.LFB329:
	.loc 1 98 1 is_stmt 1
	.cfi_startproc
	.loc 1 99 2
.LVL75:
	.loc 1 100 2
	.loc 1 101 2
	.loc 1 102 2
	.loc 1 103 2
	.loc 1 104 2
	.loc 1 105 2
	.loc 1 105 13
	.loc 1 98 1 is_stmt 0
	addi	sp,sp,-64
	.cfi_def_cfa_offset 64
	sw	s1,52(sp)
	.cfi_offset 9, -12
	lui	s1,%hi(.LANCHOR0)
	addi	s1,s1,%lo(.LANCHOR0)
	sw	s9,20(sp)
	lui	a5,%hi(.LANCHOR1)
	.cfi_offset 25, -44
	lui	s9,%hi(.LANCHOR0+104)
	sw	s5,36(sp)
	sw	s6,32(sp)
	sw	s7,28(sp)
	sw	s8,24(sp)
	.cfi_offset 21, -28
	.cfi_offset 22, -32
	.cfi_offset 23, -36
	.cfi_offset 24, -40
	addi	s5,s1,40
	sw	ra,60(sp)
	sw	s0,56(sp)
	sw	s2,48(sp)
	sw	s3,44(sp)
	sw	s4,40(sp)
	sw	s10,16(sp)
	sw	s11,12(sp)
	.cfi_offset 1, -4
	.cfi_offset 8, -8
	.cfi_offset 18, -16
	.cfi_offset 19, -20
	.cfi_offset 20, -24
	.cfi_offset 26, -48
	.cfi_offset 27, -52
	addi	s1,s1,56
	addi	s8,a5,%lo(.LANCHOR1)
	.loc 1 106 9
	li	s7,0
	addi	s9,s9,%lo(.LANCHOR0+104)
	.loc 1 106 14
	li	s6,4
.LVL76:
.L72:
	.loc 1 106 14 is_stmt 1
	mv	s4,s9
	.loc 1 107 8 is_stmt 0
	mv	s3,s8
	.loc 1 106 9
	li	s2,0
.LVL77:
.L76:
	.loc 1 108 15 is_stmt 1
	.loc 1 98 1 is_stmt 0
	mv	s10,s4
	mv	s0,s5
	.loc 1 107 8
	li	s11,0
.LVL78:
.L73:
	.loc 1 109 5 is_stmt 1 discriminator 3
	.loc 1 109 25 is_stmt 0 discriminator 3
	lw	a1,0(s10)
	lw	a0,0(s0)
	.loc 1 108 15 discriminator 3
	addi	s0,s0,4
	addi	s10,s10,16
	.loc 1 109 25 discriminator 3
	call	__mulsi3
.LVL79:
	.loc 1 109 9 discriminator 3
	add	s11,s11,a0
.LVL80:
	.loc 1 108 19 is_stmt 1 discriminator 3
	.loc 1 108 15 discriminator 3
	bne	s0,s1,.L73
	.loc 1 110 4 discriminator 2
	.loc 1 110 22 is_stmt 0 discriminator 2
	sw	s11,0(s3)
	.loc 1 106 19 is_stmt 1 discriminator 2
	addi	s2,s2,1
.LVL81:
	.loc 1 106 14 discriminator 2
	addi	s3,s3,4
	addi	s4,s4,4
	bne	s2,s6,.L76
	.loc 1 105 18 discriminator 2
	.loc 1 105 13 discriminator 2
	addi	s7,s7,4
	li	a5,16
	addi	s5,s5,16
	addi	s1,s0,16
	addi	s8,s8,16
	bne	s7,a5,.L72
	.loc 1 113 2
	.loc 1 114 1 is_stmt 0
	lw	ra,60(sp)
	.cfi_restore 1
	lw	s0,56(sp)
	.cfi_restore 8
	lui	a5,%hi(.LANCHOR1)
	lw	s1,52(sp)
	.cfi_restore 9
	lw	s2,48(sp)
	.cfi_restore 18
.LVL82:
	lw	s3,44(sp)
	.cfi_restore 19
	lw	s4,40(sp)
	.cfi_restore 20
	lw	s5,36(sp)
	.cfi_restore 21
	lw	s6,32(sp)
	.cfi_restore 22
	lw	s7,28(sp)
	.cfi_restore 23
	lw	s8,24(sp)
	.cfi_restore 24
	lw	s9,20(sp)
	.cfi_restore 25
	lw	s10,16(sp)
	.cfi_restore 26
	lw	s11,12(sp)
	.cfi_restore 27
.LVL83:
	addi	a0,a5,%lo(.LANCHOR1)
	addi	sp,sp,64
	.cfi_def_cfa_offset 0
	jr	ra
	.cfi_endproc
.LFE329:
	.size	matmul, .-matmul
	.align	2
	.globl	initfir
	.type	initfir, @function
initfir:
.LFB330:
	.loc 1 117 61 is_stmt 1
	.cfi_startproc
	.loc 1 120 2
.LBB81:
	.loc 1 120 7
.LVL84:
	.loc 1 120 20
	lui	a1,%hi(.LANCHOR0)
	addi	a1,a1,%lo(.LANCHOR0)
	.loc 1 122 5 is_stmt 0
	li	a4,889196544
.LBE81:
	.loc 1 117 61
	addi	a5,a1,168
.LBB82:
	.loc 1 122 5
	addi	a0,a4,-1024
	addi	a1,a1,212
	sub	a0,a0,a5
.LVL85:
.L80:
	.loc 1 122 3 is_stmt 1 discriminator 3
	.loc 1 122 56 is_stmt 0 discriminator 3
	lw	a2,0(a5)
	.loc 1 122 5 discriminator 3
	add	a3,a0,a5
	.loc 1 120 20 discriminator 3
	addi	a5,a5,4
	.loc 1 122 51 discriminator 3
	sw	a2,0(a3)
	.loc 1 120 27 is_stmt 1 discriminator 3
	.loc 1 120 20 discriminator 3
	bne	a5,a1,.L80
	addi	a4,a4,-960
.LBE82:
.LBB83:
	.loc 1 127 11 is_stmt 0
	li	a5,0
	.loc 1 127 20
	li	a3,64
.L81:
.LVL86:
	.loc 1 129 3 is_stmt 1 discriminator 3
	.loc 1 129 5 is_stmt 0 discriminator 3
	addi	a5,a5,1
.LVL87:
	.loc 1 130 3 is_stmt 1 discriminator 3
	.loc 1 130 51 is_stmt 0 discriminator 3
	sw	a5,0(a4)
	.loc 1 127 27 is_stmt 1 discriminator 3
.LVL88:
	.loc 1 127 20 discriminator 3
	addi	a4,a4,4
	bne	a5,a3,.L81
.LBE83:
	.loc 1 134 1 is_stmt 0
	ret
	.cfi_endproc
.LFE330:
	.size	initfir, .-initfir
	.globl	tap
	.globl	result
	.globl	B
	.globl	A
	.globl	C
	.data
	.align	2
	.set	.LANCHOR0,. + 0
	.type	C, @object
	.size	C, 40
C:
	.word	893
	.word	40
	.word	3233
	.word	4267
	.word	2669
	.word	2541
	.word	9073
	.word	6023
	.word	5681
	.word	4622
	.type	A, @object
	.size	A, 64
A:
	.word	0
	.word	1
	.word	2
	.word	3
	.word	0
	.word	1
	.word	2
	.word	3
	.word	0
	.word	1
	.word	2
	.word	3
	.word	0
	.word	1
	.word	2
	.word	3
	.type	B, @object
	.size	B, 64
B:
	.word	1
	.word	2
	.word	3
	.word	4
	.word	5
	.word	6
	.word	7
	.word	8
	.word	9
	.word	10
	.word	11
	.word	12
	.word	13
	.word	14
	.word	15
	.word	16
	.type	tap, @object
	.size	tap, 44
tap:
	.word	0
	.word	-10
	.word	-9
	.word	23
	.word	56
	.word	63
	.word	56
	.word	23
	.word	-9
	.word	-10
	.word	0
	.bss
	.align	2
	.set	.LANCHOR1,. + 0
	.type	result, @object
	.size	result, 64
result:
	.zero	64
	.text
.Letext0:
	.file 2 "integrate.h"
	.file 3 "/opt/riscv/lib/gcc/riscv32-unknown-elf/12.1.0/include/stdint-gcc.h"